; Function Attrs: nounwind sspstrong uwtable
define internal noundef i64 @strscan_unscan(i64 noundef returned %0) #0 {
  %2 = tail call ptr @rb_check_typeddata(i64 noundef %0, ptr noundef nonnull @strscanner_type) #12
  %3 = getelementptr inbounds nuw i8, ptr %2, i64 8
  %4 = load i64, ptr %3, align 8, !tbaa !23
  %5 = icmp eq i64 %4, 4
  br i1 %5, label %6, label %8

6:                                                ; preds = %1
  %7 = load i64, ptr @rb_eArgError, align 8, !tbaa !10
  tail call void (i64, ptr, ...) @rb_raise(i64 noundef %7, ptr noundef nonnull @.str.66) #14
  unreachable

8:                                                ; preds = %1
  %9 = load i64, ptr %2, align 8, !tbaa !18
  %10 = and i64 %9, 1
  %.not = icmp eq i64 %10, 0
  br i1 %.not, label %11, label %13

11:                                               ; preds = %8
  %12 = load i64, ptr @ScanError, align 8, !tbaa !10
  tail call void (i64, ptr, ...) @rb_raise(i64 noundef %12, ptr noundef nonnull @.str.72) #14
  unreachable

13:                                               ; preds = %8
  %14 = getelementptr inbounds nuw i8, ptr %2, i64 16
  %15 = load i64, ptr %14, align 8, !tbaa !28
  %16 = getelementptr inbounds nuw i8, ptr %2, i64 24
  store i64 %15, ptr %16, align 8, !tbaa !29
  %17 = and i64 %9, -2
  store i64 %17, ptr %2, align 8, !tbaa !18
  ret i64 %0
}